(lp1
(itree
node
p2
(dp3
S'left'
p4
(itree
node
p5
(dp6
g4
NsS'right'
p7
NsS'results'
p8
(dp9
F-1
I3
ssS'value'
p10
NsS'fea'
p11
I-1
sbsg7
(itree
node
p12
(dp13
g4
Nsg7
Nsg8
(dp14
F1
I1
ssg10
Nsg11
I-1
sbsg8
Nsg10
F5
sg11
I0
sba(itree
node
p15
(dp16
g4
(itree
node
p17
(dp18
g4
Nsg7
Nsg8
(dp19
F-1
I1
ssg10
Nsg11
I-1
sbsg7
(itree
node
p20
(dp21
g4
Nsg7
Nsg8
(dp22
F1
I3
ssg10
Nsg11
I-1
sbsg8
Nsg10
F5
sg11
I0
sba(itree
node
p23
(dp24
g4
Nsg7
Nsg8
(dp25
F-1
I4
ssg10
Nsg11
I-1
sba.